; Function Attrs: nounwind uwtable
define dso_local i32 @uv_loop_fork(ptr noundef %0) local_unnamed_addr #0 {
  %2 = tail call i32 @uv__io_fork(ptr noundef %0) #4
  %.not = icmp eq i32 %2, 0
  br i1 %.not, label %3, label %.loopexit

3:                                                ; preds = %1
  %4 = tail call i32 @uv__async_fork(ptr noundef %0) #4
  %.not25 = icmp eq i32 %4, 0
  br i1 %.not25, label %5, label %.loopexit

5:                                                ; preds = %3
  %6 = tail call i32 @uv__signal_loop_fork(ptr noundef %0) #4
  %.not26 = icmp eq i32 %6, 0
  br i1 %.not26, label %.preheader, label %.loopexit

.preheader:                                       ; preds = %5
  %7 = getelementptr inbounds nuw i8, ptr %0, i64 112
  %8 = load i32, ptr %7, align 8
  %.not31 = icmp eq i32 %8, 0
  br i1 %.not31, label %.loopexit, label %.lr.ph

.lr.ph:                                           ; preds = %.preheader
  %9 = getelementptr inbounds nuw i8, ptr %0, i64 104
  %10 = getelementptr inbounds nuw i8, ptr %0, i64 88
  %11 = getelementptr inbounds nuw i8, ptr %0, i64 96
  br label %12

12:                                               ; preds = %.lr.ph, %28
  %13 = phi i32 [ %8, %.lr.ph ], [ %29, %28 ]
  %indvars.iv = phi i64 [ 0, %.lr.ph ], [ %indvars.iv.next, %28 ]
  %14 = load ptr, ptr %9, align 8
  %15 = getelementptr inbounds nuw ptr, ptr %14, i64 %indvars.iv
  %16 = load ptr, ptr %15, align 8
  %17 = icmp eq ptr %16, null
  br i1 %17, label %28, label %18

18:                                               ; preds = %12
  %19 = getelementptr inbounds nuw i8, ptr %16, i64 40
  %20 = load i32, ptr %19, align 8
  %.not27 = icmp eq i32 %20, 0
  br i1 %.not27, label %28, label %21

21:                                               ; preds = %18
  %22 = getelementptr inbounds nuw i8, ptr %16, i64 24
  %23 = load ptr, ptr %22, align 8
  %.not29 = icmp eq ptr %22, %23
  br i1 %.not29, label %24, label %28

24:                                               ; preds = %21
  %25 = getelementptr inbounds nuw i8, ptr %16, i64 44
  store i32 0, ptr %25, align 4
  store ptr %10, ptr %22, align 8
  %26 = load ptr, ptr %11, align 8
  %27 = getelementptr inbounds nuw i8, ptr %16, i64 32
  store ptr %26, ptr %27, align 8
  store ptr %22, ptr %26, align 8
  store ptr %22, ptr %11, align 8
  %.pre = load i32, ptr %7, align 8
  br label %28

28:                                               ; preds = %18, %21, %24, %12
  %29 = phi i32 [ %13, %18 ], [ %13, %21 ], [ %.pre, %24 ], [ %13, %12 ]
  %indvars.iv.next = add nuw nsw i64 %indvars.iv, 1
  %30 = zext i32 %29 to i64
  %31 = icmp samesign ult i64 %indvars.iv.next, %30
  br i1 %31, label %12, label %.loopexit

.loopexit:                                        ; preds = %28, %.preheader, %5, %3, %1
  %.0 = phi i32 [ %2, %1 ], [ %4, %3 ], [ %6, %5 ], [ 0, %.preheader ], [ 0, %28 ]
  ret i32 %.0
}